target datalayout = "e-m:e-p270:32:32-p271:32:32-p272:64:64-i64:64-i128:128-f80:128-n8:16:32:64-S128"
target triple = "x86_64-pc-linux-gnu"

%struct.AVFormatContext = type { ptr, ptr, ptr, ptr, ptr, i32, i32, ptr, i32, ptr, i32, ptr, ptr, i64, i64, i64, i32, i32, i32, i64, i64, ptr, i32, i32, ptr, i32, i32, i32, i32, ptr, i64, i32, i32, %struct.AVIOInterruptCB, i32, i32, i32, i32, i64, i32, i32, i32, i32, i32, i32, i32, i32, i32, i32, i32, i32, i64, i32, i32, i32, i32, i32, ptr, ptr, ptr, ptr, i32, ptr, ptr, ptr, ptr, i32, ptr, ptr, i64, ptr, ptr, ptr, i64 }
%struct.AVIOInterruptCB = type { ptr, ptr }
%struct.AVStream = type { ptr, i32, i32, ptr, ptr, %struct.AVRational, i64, i64, i64, i32, i32, %struct.AVRational, ptr, %struct.AVRational, %struct.AVPacket, i32, %struct.AVRational, i32 }
%struct.AVPacket = type { ptr, i64, i64, ptr, i32, i32, i32, ptr, i32, i64, i64, ptr, ptr, %struct.AVRational }
%struct.AVRational = type { i32, i32 }
%struct.AVCodecParameters = type { i32, i32, i32, ptr, i32, ptr, i32, i32, i64, i32, i32, i32, i32, i32, i32, %struct.AVRational, %struct.AVRational, i32, i32, i32, i32, i32, i32, i32, %struct.AVChannelLayout, i32, i32, i32, i32, i32, i32 }
%struct.AVChannelLayout = type { i32, i32, %union.anon, ptr }
%union.anon = type { i64 }
%struct.AVIOContext = type { ptr, ptr, i32, ptr, ptr, ptr, ptr, ptr, ptr, i64, i32, i32, i32, i32, i32, i64, ptr, ptr, ptr, ptr, i32, i32, ptr, ptr, ptr, i32, ptr, i64, i64 }
%struct.CAFContext = type { i64, i32, i32, i32 }

@.str.16 = private unnamed_addr constant [5 x i8] c"pakt\00", align 1

; Function Attrs: alwaysinline nounwind uwtable
define internal void @ffio_wfourcc(ptr noundef %0, ptr noundef %1) #3 {
  %3 = alloca ptr, align 8
  %4 = alloca ptr, align 8
  store ptr %0, ptr %3, align 8, !tbaa !26
  store ptr %1, ptr %4, align 8, !tbaa !70
  %5 = load ptr, ptr %3, align 8, !tbaa !26
  %6 = load ptr, ptr %4, align 8, !tbaa !70
  %7 = getelementptr inbounds i8, ptr %6, i64 0
  %8 = load i8, ptr %7, align 1, !tbaa !54
  %9 = zext i8 %8 to i32
  %10 = load ptr, ptr %4, align 8, !tbaa !70
  %11 = getelementptr inbounds i8, ptr %10, i64 1
  %12 = load i8, ptr %11, align 1, !tbaa !54
  %13 = zext i8 %12 to i32
  %14 = shl i32 %13, 8
  %15 = or i32 %9, %14
  %16 = load ptr, ptr %4, align 8, !tbaa !70
  %17 = getelementptr inbounds i8, ptr %16, i64 2
  %18 = load i8, ptr %17, align 1, !tbaa !54
  %19 = zext i8 %18 to i32
  %20 = shl i32 %19, 16
  %21 = or i32 %15, %20
  %22 = load ptr, ptr %4, align 8, !tbaa !70
  %23 = getelementptr inbounds i8, ptr %22, i64 3
  %24 = load i8, ptr %23, align 1, !tbaa !54
  %25 = zext i8 %24 to i32
  %26 = shl i32 %25, 24
  %27 = or i32 %21, %26
  call void @avio_wl32(ptr noundef %5, i32 noundef %27)
  ret void
}

; Function Attrs: alwaysinline nounwind uwtable
define internal i64 @avio_tell(ptr noundef %0) #3 {
  %2 = alloca ptr, align 8
  store ptr %0, ptr %2, align 8, !tbaa !26
  %3 = load ptr, ptr %2, align 8, !tbaa !26
  %4 = call i64 @avio_seek(ptr noundef %3, i64 noundef 0, i32 noundef 1)
  ret i64 %4
}

; Function Attrs: nounwind uwtable
define internal i32 @caf_write_trailer(ptr noundef %0) #0 {
  %2 = alloca ptr, align 8
  %3 = alloca ptr, align 8
  %4 = alloca ptr, align 8
  %5 = alloca ptr, align 8
  %6 = alloca ptr, align 8
  %7 = alloca i64, align 8
  %8 = alloca i32, align 4
  store ptr %0, ptr %2, align 8, !tbaa !4
  call void @llvm.lifetime.start.p0(i64 8, ptr %3) #5
  %9 = load ptr, ptr %2, align 8, !tbaa !4
  %10 = getelementptr inbounds nuw %struct.AVFormatContext, ptr %9, i32 0, i32 3
  %11 = load ptr, ptr %10, align 8, !tbaa !38
  store ptr %11, ptr %3, align 8, !tbaa !39
  call void @llvm.lifetime.start.p0(i64 8, ptr %4) #5
  %12 = load ptr, ptr %2, align 8, !tbaa !4
  %13 = getelementptr inbounds nuw %struct.AVFormatContext, ptr %12, i32 0, i32 4
  %14 = load ptr, ptr %13, align 8, !tbaa !9
  store ptr %14, ptr %4, align 8, !tbaa !26
  call void @llvm.lifetime.start.p0(i64 8, ptr %5) #5
  %15 = load ptr, ptr %2, align 8, !tbaa !4
  %16 = getelementptr inbounds nuw %struct.AVFormatContext, ptr %15, i32 0, i32 7
  %17 = load ptr, ptr %16, align 8, !tbaa !27
  %18 = getelementptr inbounds ptr, ptr %17, i64 0
  %19 = load ptr, ptr %18, align 8, !tbaa !28
  store ptr %19, ptr %5, align 8, !tbaa !28
  call void @llvm.lifetime.start.p0(i64 8, ptr %6) #5
  %20 = load ptr, ptr %5, align 8, !tbaa !28
  %21 = getelementptr inbounds nuw %struct.AVStream, ptr %20, i32 0, i32 3
  %22 = load ptr, ptr %21, align 8, !tbaa !30
  store ptr %22, ptr %6, align 8, !tbaa !37
  %23 = load ptr, ptr %4, align 8, !tbaa !26
  %24 = getelementptr inbounds nuw %struct.AVIOContext, ptr %23, i32 0, i32 20
  %25 = load i32, ptr %24, align 8, !tbaa !51
  %26 = and i32 %25, 1
  %27 = icmp ne i32 %26, 0
  br i1 %27, label %28, label %100

28:                                               ; preds = %1
  call void @llvm.lifetime.start.p0(i64 8, ptr %7) #5
  %29 = load ptr, ptr %4, align 8, !tbaa !26
  %30 = call i64 @avio_tell(ptr noundef %29)
  store i64 %30, ptr %7, align 8, !tbaa !46
  %31 = load ptr, ptr %4, align 8, !tbaa !26
  %32 = load ptr, ptr %3, align 8, !tbaa !39
  %33 = getelementptr inbounds nuw %struct.CAFContext, ptr %32, i32 0, i32 0
  %34 = load i64, ptr %33, align 8, !tbaa !64
  %35 = call i64 @avio_seek(ptr noundef %31, i64 noundef %34, i32 noundef 0)
  %36 = load ptr, ptr %4, align 8, !tbaa !26
  %37 = load i64, ptr %7, align 8, !tbaa !46
  %38 = load ptr, ptr %3, align 8, !tbaa !39
  %39 = getelementptr inbounds nuw %struct.CAFContext, ptr %38, i32 0, i32 0
  %40 = load i64, ptr %39, align 8, !tbaa !64
  %41 = sub nsw i64 %37, %40
  %42 = sub nsw i64 %41, 8
  call void @avio_wb64(ptr noundef %36, i64 noundef %42)
  %43 = load ptr, ptr %6, align 8, !tbaa !37
  %44 = getelementptr inbounds nuw %struct.AVCodecParameters, ptr %43, i32 0, i32 26
  %45 = load i32, ptr %44, align 4, !tbaa !50
  %46 = icmp ne i32 %45, 0
  br i1 %46, label %99, label %47

47:                                               ; preds = %28
  call void @llvm.lifetime.start.p0(i64 4, ptr %8) #5
  %48 = load ptr, ptr %6, align 8, !tbaa !37
  %49 = call i32 @samples_per_packet(ptr noundef %48)
  store i32 %49, ptr %8, align 4, !tbaa !45
  %50 = load i32, ptr %8, align 4, !tbaa !45
  %51 = icmp ne i32 %50, 0
  br i1 %51, label %67, label %52

52:                                               ; preds = %47
  %53 = load ptr, ptr %5, align 8, !tbaa !28
  %54 = getelementptr inbounds nuw %struct.AVStream, ptr %53, i32 0, i32 7
  %55 = load i64, ptr %54, align 8, !tbaa !75
  %56 = load ptr, ptr %3, align 8, !tbaa !39
  %57 = getelementptr inbounds nuw %struct.CAFContext, ptr %56, i32 0, i32 3
  %58 = load i32, ptr %57, align 8, !tbaa !73
  %59 = sub nsw i32 %58, 1
  %60 = sext i32 %59 to i64
  %61 = sdiv i64 %55, %60
  %62 = trunc i64 %61 to i32
  store i32 %62, ptr %8, align 4, !tbaa !45
  %63 = load ptr, ptr %4, align 8, !tbaa !26
  %64 = call i64 @avio_seek(ptr noundef %63, i64 noundef 40, i32 noundef 0)
  %65 = load ptr, ptr %4, align 8, !tbaa !26
  %66 = load i32, ptr %8, align 4, !tbaa !45
  call void @avio_wb32(ptr noundef %65, i32 noundef %66)
  br label %67

67:                                               ; preds = %52, %47
  %68 = load ptr, ptr %4, align 8, !tbaa !26
  %69 = load i64, ptr %7, align 8, !tbaa !46
  %70 = call i64 @avio_seek(ptr noundef %68, i64 noundef %69, i32 noundef 0)
  %71 = load ptr, ptr %4, align 8, !tbaa !26
  call void @ffio_wfourcc(ptr noundef %71, ptr noundef @.str.16)
  %72 = load ptr, ptr %4, align 8, !tbaa !26
  %73 = load ptr, ptr %3, align 8, !tbaa !39
  %74 = getelementptr inbounds nuw %struct.CAFContext, ptr %73, i32 0, i32 2
  %75 = load i32, ptr %74, align 4, !tbaa !68
  %76 = add i32 %75, 24
  %77 = zext i32 %76 to i64
  call void @avio_wb64(ptr noundef %72, i64 noundef %77)
  %78 = load ptr, ptr %4, align 8, !tbaa !26
  %79 = load ptr, ptr %3, align 8, !tbaa !39
  %80 = getelementptr inbounds nuw %struct.CAFContext, ptr %79, i32 0, i32 3
  %81 = load i32, ptr %80, align 8, !tbaa !73
  %82 = sext i32 %81 to i64
  call void @avio_wb64(ptr noundef %78, i64 noundef %82)
  %83 = load ptr, ptr %4, align 8, !tbaa !26
  %84 = load ptr, ptr %3, align 8, !tbaa !39
  %85 = getelementptr inbounds nuw %struct.CAFContext, ptr %84, i32 0, i32 3
  %86 = load i32, ptr %85, align 8, !tbaa !73
  %87 = load i32, ptr %8, align 4, !tbaa !45
  %88 = mul nsw i32 %86, %87
  %89 = sext i32 %88 to i64
  call void @avio_wb64(ptr noundef %83, i64 noundef %89)
  %90 = load ptr, ptr %4, align 8, !tbaa !26
  call void @avio_wb32(ptr noundef %90, i32 noundef 0)
  %91 = load ptr, ptr %4, align 8, !tbaa !26
  call void @avio_wb32(ptr noundef %91, i32 noundef 0)
  %92 = load ptr, ptr %4, align 8, !tbaa !26
  %93 = load ptr, ptr %5, align 8, !tbaa !28
  %94 = getelementptr inbounds nuw %struct.AVStream, ptr %93, i32 0, i32 4
  %95 = load ptr, ptr %94, align 8, !tbaa !69
  %96 = load ptr, ptr %3, align 8, !tbaa !39
  %97 = getelementptr inbounds nuw %struct.CAFContext, ptr %96, i32 0, i32 2
  %98 = load i32, ptr %97, align 4, !tbaa !68
  call void @avio_write(ptr noundef %92, ptr noundef %95, i32 noundef %98)
  call void @llvm.lifetime.end.p0(i64 4, ptr %8) #5
  br label %99

99:                                               ; preds = %67, %28
  call void @llvm.lifetime.end.p0(i64 8, ptr %7) #5
  br label %100

100:                                              ; preds = %99, %1
  call void @llvm.lifetime.end.p0(i64 8, ptr %6) #5
  call void @llvm.lifetime.end.p0(i64 8, ptr %5) #5
  call void @llvm.lifetime.end.p0(i64 8, ptr %4) #5
  call void @llvm.lifetime.end.p0(i64 8, ptr %3) #5
  ret i32 0
}