; Function Attrs: nounwind uwtable
define internal noundef i32 @caf_write_trailer(ptr noundef readonly captures(none) %0) #0 {
  %2 = getelementptr inbounds nuw i8, ptr %0, i64 24
  %3 = load ptr, ptr %2, align 8, !tbaa !34
  %4 = getelementptr inbounds nuw i8, ptr %0, i64 32
  %5 = load ptr, ptr %4, align 8, !tbaa !4
  %6 = getelementptr inbounds nuw i8, ptr %0, i64 48
  %7 = load ptr, ptr %6, align 8, !tbaa !24
  %8 = load ptr, ptr %7, align 8, !tbaa !25
  %9 = getelementptr inbounds nuw i8, ptr %8, i64 16
  %10 = load ptr, ptr %9, align 8, !tbaa !27
  %11 = getelementptr inbounds nuw i8, ptr %5, i64 144
  %12 = load i32, ptr %11, align 8, !tbaa !42
  %13 = and i32 %12, 1
  %.not = icmp eq i32 %13, 0
  br i1 %.not, label %50, label %14

14:                                               ; preds = %1
  %15 = tail call i64 @avio_seek(ptr noundef nonnull %5, i64 noundef 0, i32 noundef 1) #4
  %16 = load i64, ptr %3, align 8, !tbaa !55
  %17 = tail call i64 @avio_seek(ptr noundef nonnull %5, i64 noundef %16, i32 noundef 0) #4
  %18 = load i64, ptr %3, align 8, !tbaa !55
  %19 = add i64 %15, -8
  %20 = sub i64 %19, %18
  tail call void @avio_wb64(ptr noundef nonnull %5, i64 noundef %20) #4
  %21 = getelementptr inbounds nuw i8, ptr %10, i64 156
  %22 = load i32, ptr %21, align 4, !tbaa !41
  %.not34 = icmp eq i32 %22, 0
  br i1 %.not34, label %23, label %50

23:                                               ; preds = %14
  %24 = tail call fastcc i32 @samples_per_packet(ptr noundef nonnull %10)
  %.not35 = icmp eq i32 %24, 0
  br i1 %.not35, label %25, label %35

25:                                               ; preds = %23
  %26 = getelementptr inbounds nuw i8, ptr %8, i64 48
  %27 = load i64, ptr %26, align 8, !tbaa !63
  %28 = getelementptr inbounds nuw i8, ptr %3, i64 16
  %29 = load i32, ptr %28, align 8, !tbaa !61
  %30 = add nsw i32 %29, -1
  %31 = sext i32 %30 to i64
  %32 = sdiv i64 %27, %31
  %33 = trunc i64 %32 to i32
  %34 = tail call i64 @avio_seek(ptr noundef nonnull %5, i64 noundef 40, i32 noundef 0) #4
  tail call void @avio_wb32(ptr noundef nonnull %5, i32 noundef %33) #4
  br label %35

35:                                               ; preds = %25, %23
  %.0 = phi i32 [ %24, %23 ], [ %33, %25 ]
  %36 = tail call i64 @avio_seek(ptr noundef nonnull %5, i64 noundef %15, i32 noundef 0) #4
  tail call void @avio_wl32(ptr noundef nonnull %5, i32 noundef 1953194352) #4
  %37 = getelementptr inbounds nuw i8, ptr %3, i64 12
  %38 = load i32, ptr %37, align 4, !tbaa !57
  %39 = add i32 %38, 24
  %40 = zext i32 %39 to i64
  tail call void @avio_wb64(ptr noundef nonnull %5, i64 noundef %40) #4
  %41 = getelementptr inbounds nuw i8, ptr %3, i64 16
  %42 = load i32, ptr %41, align 8, !tbaa !61
  %43 = sext i32 %42 to i64
  tail call void @avio_wb64(ptr noundef nonnull %5, i64 noundef %43) #4
  %44 = load i32, ptr %41, align 8, !tbaa !61
  %45 = mul nsw i32 %44, %.0
  %46 = sext i32 %45 to i64
  tail call void @avio_wb64(ptr noundef nonnull %5, i64 noundef %46) #4
  tail call void @avio_wb32(ptr noundef nonnull %5, i32 noundef 0) #4
  tail call void @avio_wb32(ptr noundef nonnull %5, i32 noundef 0) #4
  %47 = getelementptr inbounds nuw i8, ptr %8, i64 24
  %48 = load ptr, ptr %47, align 8, !tbaa !58
  %49 = load i32, ptr %37, align 4, !tbaa !57
  tail call void @avio_write(ptr noundef nonnull %5, ptr noundef %48, i32 noundef %49) #4
  br label %50

50:                                               ; preds = %14, %35, %1
  ret i32 0
}